; Function Attrs: mustprogress uwtable
define noundef zeroext i1 @_ZN4pkpy10AttribExpr8emit_delEPNS_15CodeEmitContextE(ptr noundef nonnull readonly align 8 captures(none) dereferenceable(26) %0, ptr noundef %1) unnamed_addr #5 align 2 {
  %3 = getelementptr inbounds nuw i8, ptr %0, i64 16
  %4 = load ptr, ptr %3, align 8
  %5 = load ptr, ptr %4, align 8
  %6 = getelementptr inbounds nuw i8, ptr %5, i64 16
  %7 = load ptr, ptr %6, align 8
  tail call void %7(ptr noundef nonnull align 8 dereferenceable(12) %4, ptr noundef %1)
  %8 = getelementptr inbounds nuw i8, ptr %0, i64 24
  %9 = load i16, ptr %8, align 8
  %10 = getelementptr inbounds nuw i8, ptr %0, i64 8
  %11 = load i32, ptr %10, align 8
  %12 = tail call noundef i32 @_ZN4pkpy15CodeEmitContext5emit_ENS_6OpcodeEtib(ptr noundef nonnull align 8 dereferenceable(232) %1, i8 noundef zeroext 33, i16 noundef zeroext %9, i32 noundef %11, i1 noundef zeroext false)
  ret i1 true
}